target datalayout = "e-m:e-p270:32:32-p271:32:32-p272:64:64-i64:64-i128:128-f80:128-n8:16:32:64-S128"
target triple = "x86_64-pc-linux-gnu"

@stderr = external global ptr, align 8

; Function Attrs: nounwind uwtable
define dso_local void @COVER_warnOnSmallCorpus(i64 noundef %0, i64 noundef %1, i32 noundef %2) #0 {
  %4 = alloca i64, align 8
  %5 = alloca i64, align 8
  %6 = alloca i32, align 4
  %7 = alloca double, align 8
  %8 = alloca i32, align 4
  store i64 %0, ptr %4, align 8, !tbaa !11
  store i64 %1, ptr %5, align 8, !tbaa !11
  store i32 %2, ptr %6, align 4, !tbaa !9
  call void @llvm.lifetime.start.p0(i64 8, ptr %7) #10
  %9 = load i64, ptr %5, align 8, !tbaa !11
  %10 = uitofp i64 %9 to double
  %11 = load i64, ptr %4, align 8, !tbaa !11
  %12 = uitofp i64 %11 to double
  %13 = fdiv double %10, %12
  store double %13, ptr %7, align 8, !tbaa !15
  %14 = load double, ptr %7, align 8, !tbaa !15
  %15 = fcmp oge double %14, 1.000000e+01
  br i1 %15, label %16, label %17

16:                                               ; preds = %3
  store i32 1, ptr %8, align 4
  br label %31

17:                                               ; preds = %3
  %18 = load i32, ptr %6, align 4, !tbaa !9
  %19 = icmp sge i32 %18, 1
  br i1 %19, label %20, label %30

20:                                               ; preds = %17
  %21 = load ptr, ptr @stderr, align 8, !tbaa !17
  %22 = load i64, ptr %4, align 8, !tbaa !11
  %23 = trunc i64 %22 to i32
  %24 = load i64, ptr %5, align 8, !tbaa !11
  %25 = trunc i64 %24 to i32
  %26 = load double, ptr %7, align 8, !tbaa !15
  %27 = call i32 (ptr, ptr, ...) @fprintf(ptr noundef %21, ptr noundef @.str, i32 noundef %23, i32 noundef %25, double noundef %26) #10
  %28 = load ptr, ptr @stderr, align 8, !tbaa !17
  %29 = call i32 @fflush(ptr noundef %28)
  br label %30

30:                                               ; preds = %20, %17
  store i32 0, ptr %8, align 4
  br label %31

31:                                               ; preds = %30, %16
  call void @llvm.lifetime.end.p0(i64 8, ptr %7) #10
  %32 = load i32, ptr %8, align 4
  switch i32 %32, label %34 [
    i32 0, label %33
    i32 1, label %33
  ]

33:                                               ; preds = %31, %31
  ret void

34:                                               ; preds = %31
  unreachable
}