; Function Attrs: nofree nounwind uwtable
define dso_local void @COVER_warnOnSmallCorpus(i64 noundef %0, i64 noundef %1, i32 noundef %2) local_unnamed_addr #2 {
  %4 = uitofp i64 %1 to double
  %5 = uitofp i64 %0 to double
  %6 = fdiv double %4, %5
  %7 = fcmp ult double %6, 1.000000e+01
  %8 = icmp sgt i32 %2, 0
  %or.cond = and i1 %8, %7
  br i1 %or.cond, label %9, label %16

9:                                                ; preds = %3
  %10 = load ptr, ptr @stderr, align 8, !tbaa !10
  %11 = trunc i64 %0 to i32
  %12 = trunc i64 %1 to i32
  %13 = tail call i32 (ptr, ptr, ...) @fprintf(ptr noundef %10, ptr noundef nonnull @.str, i32 noundef %11, i32 noundef %12, double noundef %6) #23
  %14 = load ptr, ptr @stderr, align 8, !tbaa !10
  %15 = tail call i32 @fflush(ptr noundef %14)
  br label %16

16:                                               ; preds = %9, %3
  ret void
}